; Function Attrs: mustprogress uwtable
define hidden noundef zeroext i1 @_ZN4cvc58internal5proof27AlfProofPostprocessCallback12shouldUpdateESt10shared_ptrINS0_9ProofNodeEERKSt6vectorINS0_12NodeTemplateILb1EEESaIS8_EERb(ptr nocapture nonnull readnone align 8 %this, ptr nocapture noundef readonly %pn, ptr nocapture nonnull readnone align 8 %fa, ptr nocapture nonnull readnone align 1 %continueUpdate) unnamed_addr #3 align 2 {
entry:
  %0 = load ptr, ptr %pn, align 8
  %call2 = tail call noundef i32 @_ZNK4cvc58internal9ProofNode7getRuleEv(ptr noundef nonnull align 8 dereferenceable(65) %0)
  switch i32 %call2, label %sw.default [
    i32 1, label %return
    i32 70, label %return
    i32 97, label %return
    i32 91, label %return
  ]

sw.default:                                       ; preds = %entry
  br label %return

return:                                           ; preds = %entry, %entry, %entry, %entry, %sw.default
  %retval.0 = phi i1 [ false, %sw.default ], [ true, %entry ], [ true, %entry ], [ true, %entry ], [ true, %entry ]
  ret i1 %retval.0
}